target datalayout = "e-m:e-p270:32:32-p271:32:32-p272:64:64-i64:64-i128:128-f80:128-n8:16:32:64-S128"
target triple = "x86_64-pc-linux-gnu"

%struct._ir_insn = type { %struct.anon, %union.anon.6 }
%struct.anon = type { %union.anon.0, %union.anon.5 }
%union.anon.0 = type { i32 }
%union.anon.5 = type { i32 }
%union.anon.6 = type { %union._ir_val }
%union._ir_val = type { double }
%struct._ir_ctx = type { ptr, i32, i32, i32, i32, i32, i32, i32, i32, i32, i32, %struct._ir_insn, ptr, ptr, ptr, i32, i32, i32, ptr, ptr, ptr, ptr, ptr, i32, i32, i64, i32, i32, i32, i64, i32, i32, i32, i32, ptr, ptr, ptr, ptr, ptr, ptr, %union.anon.14, ptr, i32, i32, i32, i64, i32, i32, i32, ptr, ptr, ptr, ptr, %struct._ir_strtab, [61 x i32], [14 x i32] }
%union.anon.14 = type { ptr }
%struct._ir_strtab = type { ptr, i32, i32, i32, i32, ptr, i32, i32 }
%struct.anon.1 = type { %union.anon.2, %union.anon.4 }
%union.anon.2 = type { i16 }
%union.anon.4 = type { i16 }
%struct.anon.3 = type { i8, i8 }
%struct._ir_backend_data = type { %struct._ir_reg_alloc_data, i32, ptr, ptr, i32, i32, i8, i8, i8, i8, i8 }
%struct._ir_reg_alloc_data = type { i32, i32, i32, ptr }
%struct.anon.8 = type { %union.anon.9, i32 }
%union.anon.9 = type { i32 }
%struct._ir_loader = type { i32, ptr, ptr, ptr, ptr, ptr, ptr, ptr, ptr, ptr, ptr, ptr, ptr, ptr, ptr }
%struct._ir_common_backend_data = type { %struct._ir_reg_alloc_data, i32, ptr, ptr }

@ir_type_size = external constant [14 x i8], align 1

; Function Attrs: nounwind uwtable
define hidden ptr @ir_resolve_sym_name(ptr noundef %0) #0 {
  %2 = alloca ptr, align 8
  %3 = alloca ptr, align 8
  %4 = alloca ptr, align 8
  store ptr %0, ptr %2, align 8
  store ptr null, ptr %3, align 8
  store ptr null, ptr %3, align 8
  %5 = load ptr, ptr %3, align 8
  %6 = load ptr, ptr %2, align 8
  %7 = call ptr @dlsym(ptr noundef %5, ptr noundef %6) #11
  store ptr %7, ptr %4, align 8
  %8 = load ptr, ptr %4, align 8
  ret ptr %8
}

; Function Attrs: nounwind uwtable
define internal ptr @ir_sym_val(ptr noundef %0, ptr noundef %1) #0 {
  %3 = alloca ptr, align 8
  %4 = alloca ptr, align 8
  %5 = alloca ptr, align 8
  %6 = alloca ptr, align 8
  store ptr %0, ptr %3, align 8
  store ptr %1, ptr %4, align 8
  %7 = load ptr, ptr %3, align 8
  %8 = load ptr, ptr %4, align 8
  %9 = getelementptr inbounds %struct._ir_insn, ptr %8, i32 0, i32 1
  %10 = getelementptr inbounds %struct.anon.8, ptr %9, i32 0, i32 0
  %11 = load i32, ptr %10, align 8
  %12 = call ptr @ir_get_str(ptr noundef %7, i32 noundef %11)
  store ptr %12, ptr %5, align 8
  %13 = load ptr, ptr %3, align 8
  %14 = getelementptr inbounds %struct._ir_ctx, ptr %13, i32 0, i32 52
  %15 = load ptr, ptr %14, align 8
  %16 = icmp ne ptr %15, null
  br i1 %16, label %17, label %43

17:                                               ; preds = %2
  %18 = load ptr, ptr %3, align 8
  %19 = getelementptr inbounds %struct._ir_ctx, ptr %18, i32 0, i32 52
  %20 = load ptr, ptr %19, align 8
  %21 = getelementptr inbounds %struct._ir_loader, ptr %20, i32 0, i32 12
  %22 = load ptr, ptr %21, align 8
  %23 = icmp ne ptr %22, null
  br i1 %23, label %24, label %43

24:                                               ; preds = %17
  %25 = load ptr, ptr %3, align 8
  %26 = getelementptr inbounds %struct._ir_ctx, ptr %25, i32 0, i32 52
  %27 = load ptr, ptr %26, align 8
  %28 = getelementptr inbounds %struct._ir_loader, ptr %27, i32 0, i32 12
  %29 = load ptr, ptr %28, align 8
  %30 = load ptr, ptr %3, align 8
  %31 = getelementptr inbounds %struct._ir_ctx, ptr %30, i32 0, i32 52
  %32 = load ptr, ptr %31, align 8
  %33 = load ptr, ptr %5, align 8
  %34 = load ptr, ptr %4, align 8
  %35 = getelementptr inbounds %struct._ir_insn, ptr %34, i32 0, i32 0
  %36 = getelementptr inbounds %struct.anon, ptr %35, i32 0, i32 0
  %37 = getelementptr inbounds %struct.anon.1, ptr %36, i32 0, i32 0
  %38 = getelementptr inbounds %struct.anon.3, ptr %37, i32 0, i32 0
  %39 = load i8, ptr %38, align 8
  %40 = zext i8 %39 to i32
  %41 = icmp eq i32 %40, 66
  %42 = call ptr %29(ptr noundef %32, ptr noundef %33, i1 noundef zeroext %41)
  br label %46

43:                                               ; preds = %17, %2
  %44 = load ptr, ptr %5, align 8
  %45 = call ptr @ir_resolve_sym_name(ptr noundef %44)
  br label %46

46:                                               ; preds = %43, %24
  %47 = phi ptr [ %42, %24 ], [ %45, %43 ]
  store ptr %47, ptr %6, align 8
  %48 = load ptr, ptr %6, align 8
  ret ptr %48
}

; Function Attrs: nounwind uwtable
define internal i32 @ir_const_label(ptr noundef %0, i32 noundef %1) #0 {
  %3 = alloca ptr, align 8
  %4 = alloca i32, align 4
  %5 = alloca ptr, align 8
  %6 = alloca i32, align 4
  %7 = alloca ptr, align 8
  %8 = alloca i32, align 4
  store ptr %0, ptr %5, align 8
  store i32 %1, ptr %6, align 4
  %9 = load ptr, ptr %5, align 8
  %10 = getelementptr inbounds %struct._ir_ctx, ptr %9, i32 0, i32 40
  %11 = load ptr, ptr %10, align 8
  store ptr %11, ptr %7, align 8
  %12 = load ptr, ptr %5, align 8
  %13 = getelementptr inbounds %struct._ir_ctx, ptr %12, i32 0, i32 16
  %14 = load i32, ptr %13, align 4
  %15 = load i32, ptr %6, align 4
  %16 = sub i32 %14, %15
  store i32 %16, ptr %8, align 4
  %17 = load ptr, ptr %7, align 8
  %18 = getelementptr inbounds %struct._ir_common_backend_data, ptr %17, i32 0, i32 3
  %19 = load ptr, ptr %18, align 8
  %20 = load i32, ptr %6, align 4
  %21 = sub nsw i32 0, %20
  store ptr %19, ptr %3, align 8
  store i32 %21, ptr %4, align 4
  %22 = load i32, ptr %4, align 4
  %23 = urem i32 %22, 64
  %24 = zext i32 %23 to i64
  %25 = shl i64 1, %24
  %26 = load ptr, ptr %3, align 8
  %27 = load i32, ptr %4, align 4
  %28 = udiv i32 %27, 64
  %29 = zext i32 %28 to i64
  %30 = getelementptr inbounds i64, ptr %26, i64 %29
  %31 = load i64, ptr %30, align 8
  %32 = or i64 %31, %25
  store i64 %32, ptr %30, align 8
  %33 = load i32, ptr %8, align 4
  ret i32 %33
}

; Function Attrs: nounwind uwtable
define internal void @ir_emit_store_mem_int_const(ptr noundef %0, i32 noundef %1, i64 noundef %2, i32 noundef %3, i8 noundef signext %4, i1 noundef zeroext %5) #0 {
  %7 = alloca ptr, align 8
  %8 = alloca i32, align 4
  %9 = alloca i64, align 8
  %10 = alloca i32, align 4
  %11 = alloca i8, align 1
  %12 = alloca i8, align 1
  %13 = alloca ptr, align 8
  %14 = alloca ptr, align 8
  %15 = alloca ptr, align 8
  %16 = alloca i32, align 4
  %17 = alloca i64, align 8
  store ptr %0, ptr %7, align 8
  store i32 %1, ptr %8, align 4
  store i64 %2, ptr %9, align 8
  store i32 %3, ptr %10, align 4
  store i8 %4, ptr %11, align 1
  %18 = zext i1 %5 to i8
  store i8 %18, ptr %12, align 1
  %19 = load ptr, ptr %7, align 8
  %20 = getelementptr inbounds %struct._ir_ctx, ptr %19, i32 0, i32 40
  %21 = load ptr, ptr %20, align 8
  store ptr %21, ptr %13, align 8
  %22 = load ptr, ptr %13, align 8
  %23 = getelementptr inbounds %struct._ir_backend_data, ptr %22, i32 0, i32 2
  store ptr %23, ptr %14, align 8
  %24 = load ptr, ptr %7, align 8
  %25 = getelementptr inbounds %struct._ir_ctx, ptr %24, i32 0, i32 0
  %26 = load ptr, ptr %25, align 8
  %27 = load i32, ptr %10, align 4
  %28 = sext i32 %27 to i64
  %29 = getelementptr inbounds %struct._ir_insn, ptr %26, i64 %28
  store ptr %29, ptr %15, align 8
  %30 = load ptr, ptr %15, align 8
  %31 = getelementptr inbounds %struct._ir_insn, ptr %30, i32 0, i32 0
  %32 = getelementptr inbounds %struct.anon, ptr %31, i32 0, i32 0
  %33 = getelementptr inbounds %struct.anon.1, ptr %32, i32 0, i32 0
  %34 = getelementptr inbounds %struct.anon.3, ptr %33, i32 0, i32 0
  %35 = load i8, ptr %34, align 8
  %36 = zext i8 %35 to i32
  %37 = icmp eq i32 %36, 68
  br i1 %37, label %38, label %50

38:                                               ; preds = %6
  %39 = load ptr, ptr %7, align 8
  %40 = load i32, ptr %10, align 4
  %41 = call i32 @ir_const_label(ptr noundef %39, i32 noundef %40)
  store i32 %41, ptr %16, align 4
  %42 = load ptr, ptr %14, align 8
  %43 = load i8, ptr %11, align 1
  %44 = sext i8 %43 to i32
  %45 = load i32, ptr %16, align 4
  call void (ptr, i32, ...) @dasm_put(ptr noundef %42, i32 noundef 938, i32 noundef %44, i32 noundef %45)
  %46 = load ptr, ptr %7, align 8
  %47 = load i32, ptr %8, align 4
  %48 = load i64, ptr %9, align 8
  %49 = load i8, ptr %11, align 1
  call void @ir_emit_store_mem_int(ptr noundef %46, i32 noundef %47, i64 noundef %48, i8 noundef signext %49)
  br label %109

50:                                               ; preds = %6
  %51 = load ptr, ptr %15, align 8
  %52 = getelementptr inbounds %struct._ir_insn, ptr %51, i32 0, i32 1
  %53 = load i64, ptr %52, align 8
  store i64 %53, ptr %17, align 8
  %54 = load ptr, ptr %15, align 8
  %55 = getelementptr inbounds %struct._ir_insn, ptr %54, i32 0, i32 0
  %56 = getelementptr inbounds %struct.anon, ptr %55, i32 0, i32 0
  %57 = getelementptr inbounds %struct.anon.1, ptr %56, i32 0, i32 0
  %58 = getelementptr inbounds %struct.anon.3, ptr %57, i32 0, i32 0
  %59 = load i8, ptr %58, align 8
  %60 = zext i8 %59 to i32
  %61 = icmp eq i32 %60, 66
  br i1 %61, label %71, label %62

62:                                               ; preds = %50
  %63 = load ptr, ptr %15, align 8
  %64 = getelementptr inbounds %struct._ir_insn, ptr %63, i32 0, i32 0
  %65 = getelementptr inbounds %struct.anon, ptr %64, i32 0, i32 0
  %66 = getelementptr inbounds %struct.anon.1, ptr %65, i32 0, i32 0
  %67 = getelementptr inbounds %struct.anon.3, ptr %66, i32 0, i32 0
  %68 = load i8, ptr %67, align 8
  %69 = zext i8 %68 to i32
  %70 = icmp eq i32 %69, 67
  br i1 %70, label %71, label %76

71:                                               ; preds = %62, %50
  %72 = load ptr, ptr %7, align 8
  %73 = load ptr, ptr %15, align 8
  %74 = call ptr @ir_sym_val(ptr noundef %72, ptr noundef %73)
  %75 = ptrtoint ptr %74 to i64
  store i64 %75, ptr %17, align 8
  br label %76

76:                                               ; preds = %71, %62
  %77 = load i64, ptr %17, align 8
  %78 = icmp sle i64 %77, 2147483647
  br i1 %78, label %79, label %99

79:                                               ; preds = %76
  %80 = load i64, ptr %17, align 8
  %81 = icmp sge i64 %80, -2147483648
  br i1 %81, label %82, label %99

82:                                               ; preds = %79
  %83 = load i8, ptr %12, align 1
  %84 = trunc i8 %83 to i1
  br i1 %84, label %85, label %93

85:                                               ; preds = %82
  %86 = load i32, ptr %8, align 4
  %87 = zext i32 %86 to i64
  %88 = getelementptr inbounds [14 x i8], ptr @ir_type_size, i64 0, i64 %87
  %89 = load i8, ptr %88, align 1
  %90 = zext i8 %89 to i32
  %91 = icmp slt i32 %90, 4
  br i1 %91, label %92, label %93

92:                                               ; preds = %85
  store i32 4, ptr %8, align 4
  br label %93

93:                                               ; preds = %92, %85, %82
  %94 = load ptr, ptr %7, align 8
  %95 = load i32, ptr %8, align 4
  %96 = load i64, ptr %9, align 8
  %97 = load i64, ptr %17, align 8
  %98 = trunc i64 %97 to i32
  call void @ir_emit_store_mem_imm(ptr noundef %94, i32 noundef %95, i64 noundef %96, i32 noundef %98)
  br label %108

99:                                               ; preds = %79, %76
  %100 = load ptr, ptr %7, align 8
  %101 = load i32, ptr %8, align 4
  %102 = load i8, ptr %11, align 1
  %103 = load i64, ptr %17, align 8
  call void @ir_emit_load_imm_int(ptr noundef %100, i32 noundef %101, i8 noundef signext %102, i64 noundef %103)
  %104 = load ptr, ptr %7, align 8
  %105 = load i32, ptr %8, align 4
  %106 = load i64, ptr %9, align 8
  %107 = load i8, ptr %11, align 1
  call void @ir_emit_store_mem_int(ptr noundef %104, i32 noundef %105, i64 noundef %106, i8 noundef signext %107)
  br label %108

108:                                              ; preds = %99, %93
  br label %109

109:                                              ; preds = %108, %38
  ret void
}