; Function Attrs: nounwind uwtable
define internal fastcc void @ir_emit_store_mem_int_const(ptr noundef %0, i32 noundef %1, i64 noundef %2, i32 noundef %3, i8 noundef signext %4, i1 noundef zeroext %5) unnamed_addr #1 {
  %7 = load ptr, ptr %0, align 8
  %8 = sext i32 %3 to i64
  %9 = getelementptr inbounds %struct._ir_insn, ptr %7, i64 %8
  %10 = load i8, ptr %9, align 8
  switch i8 %10, label %28 [
    i8 68, label %11
    i8 66, label %._crit_edge
  ]

._crit_edge:                                      ; preds = %6
  %.phi.trans.insert = getelementptr inbounds i8, ptr %9, i64 8
  %.pre = load i32, ptr %.phi.trans.insert, align 8
  br label %33

11:                                               ; preds = %6
  %12 = getelementptr inbounds i8, ptr %0, i64 248
  %13 = load ptr, ptr %12, align 8
  %14 = getelementptr inbounds i8, ptr %13, i64 32
  %15 = getelementptr i8, ptr %0, i64 92
  %.val39 = load i32, ptr %15, align 4
  %16 = getelementptr i8, ptr %13, i64 40
  %.val40.val = load ptr, ptr %16, align 8
  %17 = sub i32 %.val39, %3
  %18 = sub nsw i32 0, %3
  %19 = and i32 %18, 63
  %20 = zext nneg i32 %19 to i64
  %21 = shl nuw i64 1, %20
  %22 = lshr i32 %18, 6
  %23 = zext nneg i32 %22 to i64
  %24 = getelementptr inbounds i64, ptr %.val40.val, i64 %23
  %25 = load i64, ptr %24, align 8
  %26 = or i64 %25, %21
  store i64 %26, ptr %24, align 8
  %27 = sext i8 %4 to i32
  tail call void (ptr, i32, ...) @dasm_put(ptr noundef nonnull %14, i32 noundef 938, i32 noundef %27, i32 noundef %17)
  %.val37 = load ptr, ptr %12, align 8
  tail call fastcc void @ir_emit_store_mem_int(ptr %.val37, i32 noundef %1, i64 noundef %2, i8 noundef signext %4)
  br label %62

28:                                               ; preds = %6
  %29 = getelementptr inbounds i8, ptr %9, i64 8
  %30 = load i64, ptr %29, align 8
  %31 = icmp eq i8 %10, 67
  %32 = trunc i64 %30 to i32
  br i1 %31, label %33, label %49

33:                                               ; preds = %._crit_edge, %28
  %34 = phi i32 [ %.pre, %._crit_edge ], [ %32, %28 ]
  %35 = tail call ptr @ir_get_str(ptr noundef nonnull %0, i32 noundef %34) #22
  %36 = getelementptr inbounds i8, ptr %0, i64 328
  %37 = load ptr, ptr %36, align 8
  %.not.i = icmp eq ptr %37, null
  br i1 %.not.i, label %45, label %38

38:                                               ; preds = %33
  %39 = getelementptr inbounds i8, ptr %37, i64 96
  %40 = load ptr, ptr %39, align 8
  %.not11.i = icmp eq ptr %40, null
  br i1 %.not11.i, label %45, label %41

41:                                               ; preds = %38
  %42 = load i8, ptr %9, align 8
  %43 = icmp eq i8 %42, 66
  %44 = tail call ptr %40(ptr noundef nonnull %37, ptr noundef %35, i1 noundef zeroext %43) #22
  br label %ir_sym_val.exit

45:                                               ; preds = %38, %33
  %46 = tail call ptr @dlsym(ptr noundef null, ptr noundef %35) #22
  br label %ir_sym_val.exit

ir_sym_val.exit:                                  ; preds = %41, %45
  %47 = phi ptr [ %44, %41 ], [ %46, %45 ]
  %48 = ptrtoint ptr %47 to i64
  br label %49

49:                                               ; preds = %ir_sym_val.exit, %28
  %.0 = phi i64 [ %48, %ir_sym_val.exit ], [ %30, %28 ]
  %50 = add i64 %.0, 2147483648
  %or.cond = icmp ult i64 %50, 4294967296
  br i1 %or.cond, label %51, label %60

51:                                               ; preds = %49
  br i1 %5, label %52, label %57

52:                                               ; preds = %51
  %53 = zext nneg i32 %1 to i64
  %54 = getelementptr inbounds [14 x i8], ptr @ir_type_size, i64 0, i64 %53
  %55 = load i8, ptr %54, align 1
  %56 = icmp ult i8 %55, 4
  %spec.store.select = select i1 %56, i32 4, i32 %1
  br label %57

57:                                               ; preds = %52, %51
  %.035 = phi i32 [ %spec.store.select, %52 ], [ %1, %51 ]
  %58 = trunc i64 %.0 to i32
  %59 = getelementptr i8, ptr %0, i64 248
  %.val41 = load ptr, ptr %59, align 8
  tail call fastcc void @ir_emit_store_mem_imm(ptr %.val41, i32 noundef %.035, i64 noundef %2, i32 noundef %58)
  br label %62

60:                                               ; preds = %49
  %61 = getelementptr i8, ptr %0, i64 248
  %.val38 = load ptr, ptr %61, align 8
  tail call fastcc void @ir_emit_load_imm_int(ptr %.val38, i32 noundef %1, i8 noundef signext %4, i64 noundef %.0)
  %.val = load ptr, ptr %61, align 8
  tail call fastcc void @ir_emit_store_mem_int(ptr %.val, i32 noundef %1, i64 noundef %2, i8 noundef signext %4)
  br label %62

62:                                               ; preds = %57, %60, %11
  ret void
}